target datalayout = "e-m:e-p270:32:32-p271:32:32-p272:64:64-i64:64-i128:128-f80:128-n8:16:32:64-S128"
target triple = "x86_64-pc-linux-gnu"

%struct.register_follow = type { i32, ptr, ptr, ptr, ptr, ptr, ptr, ptr, ptr }

@.str = private unnamed_addr constant [29 x i8] c"%s:%u: failed assertion \22%s\22\00", align 1
@.str.1 = private unnamed_addr constant [14 x i8] c"epan/follow.c\00", align 1
@.str.2 = private unnamed_addr constant [13 x i8] c"tap_listener\00", align 1
@.str.3 = private unnamed_addr constant [12 x i8] c"conv_filter\00", align 1
@.str.4 = private unnamed_addr constant [13 x i8] c"index_filter\00", align 1
@.str.5 = private unnamed_addr constant [15 x i8] c"address_filter\00", align 1
@.str.6 = private unnamed_addr constant [16 x i8] c"port_to_display\00", align 1
@.str.7 = private unnamed_addr constant [12 x i8] c"tap_handler\00", align 1
@registered_followers = internal global ptr null, align 8

; Function Attrs: null_pointer_is_valid sspstrong uwtable
define void @register_follow_stream(i32 noundef %0, ptr noundef %1, ptr noundef %2, ptr noundef %3, ptr noundef %4, ptr noundef %5, ptr noundef %6, ptr noundef %7, ptr noundef %8) #0 {
  %10 = alloca i32, align 4
  %11 = alloca ptr, align 8
  %12 = alloca ptr, align 8
  %13 = alloca ptr, align 8
  %14 = alloca ptr, align 8
  %15 = alloca ptr, align 8
  %16 = alloca ptr, align 8
  %17 = alloca ptr, align 8
  %18 = alloca ptr, align 8
  %19 = alloca ptr, align 8
  store i32 %0, ptr %10, align 4
  store ptr %1, ptr %11, align 8
  store ptr %2, ptr %12, align 8
  store ptr %3, ptr %13, align 8
  store ptr %4, ptr %14, align 8
  store ptr %5, ptr %15, align 8
  store ptr %6, ptr %16, align 8
  store ptr %7, ptr %17, align 8
  store ptr %8, ptr %18, align 8
  call void @llvm.lifetime.start.p0(i64 8, ptr %19) #14
  %20 = load ptr, ptr %11, align 8
  %21 = icmp ne ptr %20, null
  br i1 %21, label %22, label %23

22:                                               ; preds = %9
  br label %25

23:                                               ; preds = %9
  call void (ptr, ...) @proto_report_dissector_bug(ptr noundef @.str, ptr noundef @.str.1, i32 noundef 43, ptr noundef @.str.2) #15
  unreachable

24:                                               ; No predecessors!
  br label %25

25:                                               ; preds = %24, %22
  %26 = load ptr, ptr %12, align 8
  %27 = icmp ne ptr %26, null
  br i1 %27, label %28, label %29

28:                                               ; preds = %25
  br label %31

29:                                               ; preds = %25
  call void (ptr, ...) @proto_report_dissector_bug(ptr noundef @.str, ptr noundef @.str.1, i32 noundef 44, ptr noundef @.str.3) #15
  unreachable

30:                                               ; No predecessors!
  br label %31

31:                                               ; preds = %30, %28
  %32 = load ptr, ptr %13, align 8
  %33 = icmp ne ptr %32, null
  br i1 %33, label %34, label %35

34:                                               ; preds = %31
  br label %37

35:                                               ; preds = %31
  call void (ptr, ...) @proto_report_dissector_bug(ptr noundef @.str, ptr noundef @.str.1, i32 noundef 45, ptr noundef @.str.4) #15
  unreachable

36:                                               ; No predecessors!
  br label %37

37:                                               ; preds = %36, %34
  %38 = load ptr, ptr %14, align 8
  %39 = icmp ne ptr %38, null
  br i1 %39, label %40, label %41

40:                                               ; preds = %37
  br label %43

41:                                               ; preds = %37
  call void (ptr, ...) @proto_report_dissector_bug(ptr noundef @.str, ptr noundef @.str.1, i32 noundef 46, ptr noundef @.str.5) #15
  unreachable

42:                                               ; No predecessors!
  br label %43

43:                                               ; preds = %42, %40
  %44 = load ptr, ptr %15, align 8
  %45 = icmp ne ptr %44, null
  br i1 %45, label %46, label %47

46:                                               ; preds = %43
  br label %49

47:                                               ; preds = %43
  call void (ptr, ...) @proto_report_dissector_bug(ptr noundef @.str, ptr noundef @.str.1, i32 noundef 47, ptr noundef @.str.6) #15
  unreachable

48:                                               ; No predecessors!
  br label %49

49:                                               ; preds = %48, %46
  %50 = load ptr, ptr %16, align 8
  %51 = icmp ne ptr %50, null
  br i1 %51, label %52, label %53

52:                                               ; preds = %49
  br label %55

53:                                               ; preds = %49
  call void (ptr, ...) @proto_report_dissector_bug(ptr noundef @.str, ptr noundef @.str.1, i32 noundef 48, ptr noundef @.str.7) #15
  unreachable

54:                                               ; No predecessors!
  br label %55

55:                                               ; preds = %54, %52
  %56 = call ptr @wmem_epan_scope()
  %57 = call noalias ptr @wmem_alloc(ptr noundef %56, i64 noundef 72) #16
  store ptr %57, ptr %19, align 8
  %58 = load i32, ptr %10, align 4
  %59 = load ptr, ptr %19, align 8
  %60 = getelementptr inbounds nuw %struct.register_follow, ptr %59, i32 0, i32 0
  store i32 %58, ptr %60, align 8
  %61 = load ptr, ptr %11, align 8
  %62 = load ptr, ptr %19, align 8
  %63 = getelementptr inbounds nuw %struct.register_follow, ptr %62, i32 0, i32 1
  store ptr %61, ptr %63, align 8
  %64 = load ptr, ptr %12, align 8
  %65 = load ptr, ptr %19, align 8
  %66 = getelementptr inbounds nuw %struct.register_follow, ptr %65, i32 0, i32 2
  store ptr %64, ptr %66, align 8
  %67 = load ptr, ptr %13, align 8
  %68 = load ptr, ptr %19, align 8
  %69 = getelementptr inbounds nuw %struct.register_follow, ptr %68, i32 0, i32 3
  store ptr %67, ptr %69, align 8
  %70 = load ptr, ptr %14, align 8
  %71 = load ptr, ptr %19, align 8
  %72 = getelementptr inbounds nuw %struct.register_follow, ptr %71, i32 0, i32 4
  store ptr %70, ptr %72, align 8
  %73 = load ptr, ptr %15, align 8
  %74 = load ptr, ptr %19, align 8
  %75 = getelementptr inbounds nuw %struct.register_follow, ptr %74, i32 0, i32 5
  store ptr %73, ptr %75, align 8
  %76 = load ptr, ptr %16, align 8
  %77 = load ptr, ptr %19, align 8
  %78 = getelementptr inbounds nuw %struct.register_follow, ptr %77, i32 0, i32 6
  store ptr %76, ptr %78, align 8
  %79 = load ptr, ptr %17, align 8
  %80 = load ptr, ptr %19, align 8
  %81 = getelementptr inbounds nuw %struct.register_follow, ptr %80, i32 0, i32 7
  store ptr %79, ptr %81, align 8
  %82 = load ptr, ptr %18, align 8
  %83 = load ptr, ptr %19, align 8
  %84 = getelementptr inbounds nuw %struct.register_follow, ptr %83, i32 0, i32 8
  store ptr %82, ptr %84, align 8
  %85 = load ptr, ptr @registered_followers, align 8
  %86 = icmp eq ptr %85, null
  br i1 %86, label %87, label %90

87:                                               ; preds = %55
  %88 = call ptr @wmem_epan_scope()
  %89 = call noalias ptr @wmem_tree_new(ptr noundef %88)
  store ptr %89, ptr @registered_followers, align 8
  br label %90

90:                                               ; preds = %87, %55
  %91 = load ptr, ptr @registered_followers, align 8
  %92 = load i32, ptr %10, align 4
  %93 = call ptr @find_protocol_by_id(i32 noundef %92)
  %94 = call ptr @proto_get_protocol_short_name(ptr noundef %93)
  %95 = load ptr, ptr %19, align 8
  call void @wmem_tree_insert_string(ptr noundef %91, ptr noundef %94, ptr noundef %95, i32 noundef 0)
  call void @llvm.lifetime.end.p0(i64 8, ptr %19) #14
  ret void
}