; Function Attrs: null_pointer_is_valid sspstrong uwtable
define void @register_follow_stream(i32 noundef %0, ptr noundef %1, ptr noundef %2, ptr noundef %3, ptr noundef %4, ptr noundef %5, ptr noundef %6, ptr noundef %7, ptr noundef %8) local_unnamed_addr #0 {
  %.not = icmp eq ptr %1, null
  br i1 %.not, label %10, label %11

10:                                               ; preds = %9
  tail call void (ptr, ...) @proto_report_dissector_bug(ptr noundef nonnull @.str, ptr noundef nonnull @.str.1, i32 noundef 43, ptr noundef nonnull @.str.2) #10
  unreachable

11:                                               ; preds = %9
  %.not30 = icmp eq ptr %2, null
  br i1 %.not30, label %12, label %13

12:                                               ; preds = %11
  tail call void (ptr, ...) @proto_report_dissector_bug(ptr noundef nonnull @.str, ptr noundef nonnull @.str.1, i32 noundef 44, ptr noundef nonnull @.str.3) #10
  unreachable

13:                                               ; preds = %11
  %.not31 = icmp eq ptr %3, null
  br i1 %.not31, label %14, label %15

14:                                               ; preds = %13
  tail call void (ptr, ...) @proto_report_dissector_bug(ptr noundef nonnull @.str, ptr noundef nonnull @.str.1, i32 noundef 45, ptr noundef nonnull @.str.4) #10
  unreachable

15:                                               ; preds = %13
  %.not32 = icmp eq ptr %4, null
  br i1 %.not32, label %16, label %17

16:                                               ; preds = %15
  tail call void (ptr, ...) @proto_report_dissector_bug(ptr noundef nonnull @.str, ptr noundef nonnull @.str.1, i32 noundef 46, ptr noundef nonnull @.str.5) #10
  unreachable

17:                                               ; preds = %15
  %.not33 = icmp eq ptr %5, null
  br i1 %.not33, label %18, label %19

18:                                               ; preds = %17
  tail call void (ptr, ...) @proto_report_dissector_bug(ptr noundef nonnull @.str, ptr noundef nonnull @.str.1, i32 noundef 47, ptr noundef nonnull @.str.6) #10
  unreachable

19:                                               ; preds = %17
  %.not34 = icmp eq ptr %6, null
  br i1 %.not34, label %20, label %21

20:                                               ; preds = %19
  tail call void (ptr, ...) @proto_report_dissector_bug(ptr noundef nonnull @.str, ptr noundef nonnull @.str.1, i32 noundef 48, ptr noundef nonnull @.str.7) #10
  unreachable

21:                                               ; preds = %19
  %22 = tail call ptr @wmem_epan_scope()
  %23 = tail call noalias dereferenceable_or_null(72) ptr @wmem_alloc(ptr noundef %22, i64 noundef 72) #11
  store i32 %0, ptr %23, align 8
  %24 = getelementptr inbounds nuw i8, ptr %23, i64 8
  store ptr %1, ptr %24, align 8
  %25 = getelementptr inbounds nuw i8, ptr %23, i64 16
  store ptr %2, ptr %25, align 8
  %26 = getelementptr inbounds nuw i8, ptr %23, i64 24
  store ptr %3, ptr %26, align 8
  %27 = getelementptr inbounds nuw i8, ptr %23, i64 32
  store ptr %4, ptr %27, align 8
  %28 = getelementptr inbounds nuw i8, ptr %23, i64 40
  store ptr %5, ptr %28, align 8
  %29 = getelementptr inbounds nuw i8, ptr %23, i64 48
  store ptr %6, ptr %29, align 8
  %30 = getelementptr inbounds nuw i8, ptr %23, i64 56
  store ptr %7, ptr %30, align 8
  %31 = getelementptr inbounds nuw i8, ptr %23, i64 64
  store ptr %8, ptr %31, align 8
  %32 = load ptr, ptr @registered_followers, align 8
  %33 = icmp eq ptr %32, null
  br i1 %33, label %34, label %37

34:                                               ; preds = %21
  %35 = tail call ptr @wmem_epan_scope()
  %36 = tail call noalias ptr @wmem_tree_new(ptr noundef %35)
  store ptr %36, ptr @registered_followers, align 8
  br label %37

37:                                               ; preds = %34, %21
  %38 = phi ptr [ %36, %34 ], [ %32, %21 ]
  %39 = tail call ptr @find_protocol_by_id(i32 noundef %0)
  %40 = tail call ptr @proto_get_protocol_short_name(ptr noundef %39)
  tail call void @wmem_tree_insert_string(ptr noundef %38, ptr noundef %40, ptr noundef %23, i32 noundef 0)
  ret void
}